target datalayout = "e-m:e-p270:32:32-p271:32:32-p272:64:64-i64:64-i128:128-f80:128-n8:16:32:64-S128"
target triple = "x86_64-pc-linux-gnu"

%struct.ssl_st = type { i32, i16, i16, ptr, ptr, ptr, ptr, ptr, i32, i32, ptr, ptr, i32, i32, ptr, ptr, ptr, ptr, ptr, ptr, ptr, ptr, i32, i32, [32 x i8], ptr, ptr, ptr, ptr, ptr, ptr, ptr, i64, %struct.crypto_ex_data_st, ptr, i32, i32, i32, i32, i16, ptr, i32, i64, ptr, ptr, ptr, ptr, ptr, ptr, i32, i32, ptr, ptr, i8, i8, i32 }
%struct.crypto_ex_data_st = type { ptr }
%struct.ssl3_state_st = type { [8 x i8], [8 x i8], [32 x i8], [32 x i8], i8, i8, %struct.ssl3_buffer_st, %struct.ssl3_buffer_st, %struct.ssl3_record_st, i8, i32, i32, i32, i32, ptr, ptr, %struct.env_md_ctx_st, %struct.env_md_ctx_st, i8, i32, [2 x i8], i32, i8, i8, ptr, ptr, ptr, %struct.anon, [64 x i8], i8, [64 x i8], i8, i32, i32, ptr, i64, ptr, i64, i8, [64 x i8] }
%struct.ssl3_buffer_st = type { ptr, i16, i16, i16 }
%struct.ssl3_record_st = type { i8, i16, ptr }
%struct.env_md_ctx_st = type { ptr, ptr, ptr, ptr }
%struct.anon = type { [64 x i8], i32, [64 x i8], i32, i64, i32, ptr, i32, i32, %union.anon, %union.anon.0, i8, i32, ptr, ptr, i64, ptr, i8, i8, i8, i8, i32, i8, ptr, i64, i8, ptr, i8, i8, i8, %struct.ssl_ecdh_ctx_st, ptr, i16 }
%union.anon = type { i32 }
%union.anon.0 = type { i16 }
%struct.ssl_ecdh_ctx_st = type { ptr, ptr }
%struct.ssl_cipher_st = type { ptr, i32, i32, i32, i32, i32, i32 }
%struct.evp_pkey_st = type { i32, i32, %union.anon.1, ptr }
%union.anon.1 = type { ptr }
%struct.x509_st = type { ptr, ptr, ptr, i32, i32, ptr, %struct.crypto_ex_data_st, i64, i64, i64, i64, i64, i64, ptr, ptr, ptr, ptr, ptr, ptr, [20 x i8], ptr }

@.str = private unnamed_addr constant [117 x i8] c"generated/home/dtcxzyw/WorkSpace/Projects/compilers/llvm-opt-benchmark/bench/libquic/libquic/boringssl/ssl/s3_clnt.c\00", align 1

; Function Attrs: nounwind uwtable
define internal i32 @ssl3_check_leaf_certificate(ptr noundef %0, ptr noundef %1) #0 {
  %3 = alloca ptr, align 8
  %4 = alloca ptr, align 8
  %5 = alloca i32, align 4
  %6 = alloca ptr, align 8
  %7 = alloca ptr, align 8
  %8 = alloca i32, align 4
  store ptr %0, ptr %3, align 8, !tbaa !6
  store ptr %1, ptr %4, align 8, !tbaa !129
  call void @llvm.lifetime.start.p0(i64 4, ptr %5) #8
  store i32 0, ptr %5, align 4, !tbaa !14
  call void @llvm.lifetime.start.p0(i64 8, ptr %6) #8
  %9 = load ptr, ptr %4, align 8, !tbaa !129
  %10 = call ptr @X509_get_pubkey(ptr noundef %9)
  store ptr %10, ptr %6, align 8, !tbaa !131
  %11 = load ptr, ptr %6, align 8, !tbaa !131
  %12 = icmp eq ptr %11, null
  br i1 %12, label %13, label %14

13:                                               ; preds = %2
  br label %59

14:                                               ; preds = %2
  %15 = load ptr, ptr %3, align 8, !tbaa !6
  %16 = getelementptr inbounds nuw %struct.ssl_st, ptr %15, i32 0, i32 14
  %17 = load ptr, ptr %16, align 8, !tbaa !54
  %18 = getelementptr inbounds nuw %struct.ssl3_state_st, ptr %17, i32 0, i32 27
  %19 = getelementptr inbounds nuw %struct.anon, ptr %18, i32 0, i32 6
  %20 = load ptr, ptr %19, align 8, !tbaa !55
  store ptr %20, ptr %7, align 8, !tbaa !114
  %21 = load ptr, ptr %7, align 8, !tbaa !114
  %22 = call i32 @ssl_cipher_get_key_type(ptr noundef %21)
  store i32 %22, ptr %8, align 4, !tbaa !14
  %23 = load ptr, ptr %6, align 8, !tbaa !131
  %24 = getelementptr inbounds nuw %struct.evp_pkey_st, ptr %23, i32 0, i32 1
  %25 = load i32, ptr %24, align 4, !tbaa !158
  %26 = load i32, ptr %8, align 4, !tbaa !14
  %27 = icmp ne i32 %25, %26
  br i1 %27, label %28, label %29

28:                                               ; preds = %14
  call void @ERR_put_error(i32 noundef 16, i32 noundef 0, i32 noundef 241, ptr noundef @.str, i32 noundef 929)
  br label %59

29:                                               ; preds = %14
  %30 = load ptr, ptr %7, align 8, !tbaa !114
  %31 = getelementptr inbounds nuw %struct.ssl_cipher_st, ptr %30, i32 0, i32 3
  %32 = load i32, ptr %31, align 8, !tbaa !123
  %33 = zext i32 %32 to i64
  %34 = and i64 %33, 2
  %35 = icmp ne i64 %34, 0
  br i1 %35, label %36, label %58

36:                                               ; preds = %29
  %37 = load ptr, ptr %4, align 8, !tbaa !129
  %38 = call i32 @X509_check_purpose(ptr noundef %37, i32 noundef -1, i32 noundef 0)
  %39 = load ptr, ptr %4, align 8, !tbaa !129
  %40 = getelementptr inbounds nuw %struct.x509_st, ptr %39, i32 0, i32 9
  %41 = load i64, ptr %40, align 8, !tbaa !190
  %42 = and i64 %41, 2
  %43 = icmp ne i64 %42, 0
  br i1 %43, label %44, label %51

44:                                               ; preds = %36
  %45 = load ptr, ptr %4, align 8, !tbaa !129
  %46 = getelementptr inbounds nuw %struct.x509_st, ptr %45, i32 0, i32 10
  %47 = load i64, ptr %46, align 8, !tbaa !201
  %48 = and i64 %47, 128
  %49 = icmp ne i64 %48, 0
  br i1 %49, label %51, label %50

50:                                               ; preds = %44
  call void @ERR_put_error(i32 noundef 16, i32 noundef 0, i32 noundef 144, ptr noundef @.str, i32 noundef 940)
  br label %59

51:                                               ; preds = %44, %36
  %52 = load ptr, ptr %3, align 8, !tbaa !6
  %53 = load ptr, ptr %4, align 8, !tbaa !129
  %54 = call i32 @tls1_check_ec_cert(ptr noundef %52, ptr noundef %53)
  %55 = icmp ne i32 %54, 0
  br i1 %55, label %57, label %56

56:                                               ; preds = %51
  call void @ERR_put_error(i32 noundef 16, i32 noundef 0, i32 noundef 107, ptr noundef @.str, i32 noundef 945)
  br label %59

57:                                               ; preds = %51
  br label %58

58:                                               ; preds = %57, %29
  store i32 1, ptr %5, align 4, !tbaa !14
  br label %59

59:                                               ; preds = %58, %56, %50, %28, %13
  %60 = load ptr, ptr %6, align 8, !tbaa !131
  call void @EVP_PKEY_free(ptr noundef %60)
  %61 = load i32, ptr %5, align 4, !tbaa !14
  call void @llvm.lifetime.end.p0(i64 8, ptr %6) #8
  call void @llvm.lifetime.end.p0(i64 4, ptr %5) #8
  ret i32 %61
}