; Function Attrs: nounwind uwtable
define internal fastcc range(i32 0, 2) i32 @ssl3_check_leaf_certificate(ptr noundef %0, ptr noundef %1) unnamed_addr #0 {
  %3 = tail call ptr @X509_get_pubkey(ptr noundef %1) #11
  %4 = icmp eq ptr %3, null
  br i1 %4, label %31, label %5

5:                                                ; preds = %2
  %6 = getelementptr inbounds nuw i8, ptr %0, i64 80
  %7 = load ptr, ptr %6, align 8, !tbaa !49
  %8 = getelementptr inbounds nuw i8, ptr %7, i64 440
  %9 = load ptr, ptr %8, align 8, !tbaa !50
  %10 = tail call i32 @ssl_cipher_get_key_type(ptr noundef %9) #11
  %11 = getelementptr inbounds nuw i8, ptr %3, i64 4
  %12 = load i32, ptr %11, align 4, !tbaa !141
  %.not = icmp eq i32 %12, %10
  br i1 %.not, label %14, label %13

13:                                               ; preds = %5
  tail call void @ERR_put_error(i32 noundef 16, i32 noundef 0, i32 noundef 241, ptr noundef nonnull @.str, i32 noundef 929) #11
  br label %31

14:                                               ; preds = %5
  %15 = getelementptr inbounds nuw i8, ptr %9, i64 16
  %16 = load i32, ptr %15, align 8, !tbaa !120
  %17 = and i32 %16, 2
  %.not14 = icmp eq i32 %17, 0
  br i1 %.not14, label %31, label %18

18:                                               ; preds = %14
  %19 = tail call i32 @X509_check_purpose(ptr noundef %1, i32 noundef -1, i32 noundef 0) #11
  %20 = getelementptr inbounds nuw i8, ptr %1, i64 64
  %21 = load i64, ptr %20, align 8, !tbaa !166
  %22 = and i64 %21, 2
  %.not15 = icmp eq i64 %22, 0
  br i1 %.not15, label %28, label %23

23:                                               ; preds = %18
  %24 = getelementptr inbounds nuw i8, ptr %1, i64 72
  %25 = load i64, ptr %24, align 8, !tbaa !177
  %26 = and i64 %25, 128
  %.not16 = icmp eq i64 %26, 0
  br i1 %.not16, label %27, label %28

27:                                               ; preds = %23
  tail call void @ERR_put_error(i32 noundef 16, i32 noundef 0, i32 noundef 144, ptr noundef nonnull @.str, i32 noundef 940) #11
  br label %31

28:                                               ; preds = %23, %18
  %29 = tail call i32 @tls1_check_ec_cert(ptr noundef nonnull %0, ptr noundef nonnull %1) #11
  %.not17 = icmp eq i32 %29, 0
  br i1 %.not17, label %30, label %31

30:                                               ; preds = %28
  tail call void @ERR_put_error(i32 noundef 16, i32 noundef 0, i32 noundef 107, ptr noundef nonnull @.str, i32 noundef 945) #11
  br label %31

31:                                               ; preds = %14, %28, %2, %30, %27, %13
  %.0 = phi i32 [ 0, %2 ], [ 0, %13 ], [ 0, %30 ], [ 0, %27 ], [ 1, %28 ], [ 1, %14 ]
  tail call void @EVP_PKEY_free(ptr noundef %3) #11
  ret i32 %.0
}